(lp0
(lp1
I0
a(i__main__
Seed
p2
(dp3
S'model'
p4
(dp5
L0L
S'\x9d'
p6
sL1L
S'\x9e'
p7
sL2L
S'\x9b'
p8
sL3L
S'!'
p9
ssS'bound'
p10
I0
sbaa(lp11
I0
a(i__main__
Seed
p12
(dp13
g4
g5
sg10
I1
sbaa(lp14
I0
a(i__main__
Seed
p15
(dp16
g4
g5
sg10
I2
sbaa(lp17
I0
a(i__main__
Seed
p18
(dp19
g4
g5
sg10
I3
sbaa.