(lp0
(lp1
I0
a(i__main__
Seed
p2
(dp3
S'model'
p4
(dp5
L0L
S'b'
p6
sL1L
S'a'
p7
sL2L
S'd'
p8
sL3L
S'd'
p9
sL4L
S'\x00'
p10
ssS'bound'
p11
I3
sbaa(lp12
I0
a(i__main__
Seed
p13
(dp14
g4
(dp15
L0L
S'g'
p16
sL1L
S'a'
p17
sL2L
S'd'
p18
sL3L
S'!'
p19
sL4L
g10
ssg11
I4
sbaa(lp20
I0
a(i__main__
Seed
p21
(dp22
g4
(dp23
L0L
g16
sL1L
S'o'
p24
sL2L
S'd'
p25
sL3L
g9
sL4L
g10
ssg11
I3
sbaa(lp26
I0
a(i__main__
Seed
p27
(dp28
g4
(dp29
L0L
g6
sL1L
g7
sL2L
g24
sL3L
S'!'
p30
sL4L
g10
ssg11
I4
sbaa(lp31
I0
a(i__main__
Seed
p32
(dp33
g4
(dp34
L0L
S'b'
p35
sL1L
g24
sL2L
S'd'
p36
sL3L
S'!'
p37
sL4L
g10
ssg11
I4
sbaa.